; Function Attrs: nounwind sspstrong uwtable
define internal i64 @dir_inspect(i64 noundef %0) #0 {
  %2 = tail call ptr @rb_check_typeddata(i64 noundef %0, ptr noundef nonnull @dir_data_type) #22
  %3 = getelementptr inbounds nuw i8, ptr %2, i64 8
  %4 = load i64, ptr %3, align 8, !tbaa !64
  %5 = icmp eq i64 %4, 4
  br i1 %5, label %29, label %6

6:                                                ; preds = %1
  %7 = tail call i64 @rb_str_new_static(ptr noundef nonnull @.str.58, i64 noundef 2) #22
  %8 = icmp eq i64 %0, 0
  %9 = and i64 %0, 7
  %10 = icmp ne i64 %9, 0
  %11 = or i1 %8, %10
  br i1 %11, label %15, label %12

12:                                               ; preds = %6
  %13 = inttoptr i64 %0 to ptr
  %14 = getelementptr inbounds nuw i8, ptr %13, i64 8
  br label %rb_class_of.exit

15:                                               ; preds = %6
  switch i64 %0, label %18 [
    i64 0, label %rb_class_of.exit
    i64 4, label %16
    i64 20, label %17
  ]

16:                                               ; preds = %15
  br label %rb_class_of.exit

17:                                               ; preds = %15
  br label %rb_class_of.exit

18:                                               ; preds = %15
  %19 = and i64 %0, 1
  %.not.i = icmp eq i64 %19, 0
  br i1 %.not.i, label %20, label %rb_class_of.exit

20:                                               ; preds = %18
  %21 = and i64 %0, 254
  %22 = icmp eq i64 %21, 12
  %spec.select.i = select i1 %22, ptr @rb_cSymbol, ptr @rb_cFloat
  br label %rb_class_of.exit

rb_class_of.exit:                                 ; preds = %12, %15, %16, %17, %18, %20
  %.0.in.i = phi ptr [ @rb_cNilClass, %16 ], [ @rb_cTrueClass, %17 ], [ %14, %12 ], [ @rb_cFalseClass, %15 ], [ @rb_cInteger, %18 ], [ %spec.select.i, %20 ]
  %.0.i = load i64, ptr %.0.in.i, align 8, !tbaa !7
  %23 = tail call i64 @rb_class_name(i64 noundef %.0.i) #22
  %24 = tail call i64 @rb_str_append(i64 noundef %7, i64 noundef %23) #22
  %25 = tail call i64 @rb_str_cat(i64 noundef %7, ptr noundef nonnull @.str.59, i64 noundef 1) #22
  %26 = load i64, ptr %3, align 8, !tbaa !64
  %27 = tail call i64 @rb_str_append(i64 noundef %7, i64 noundef %26) #22
  %28 = tail call i64 @rb_str_cat(i64 noundef %7, ptr noundef nonnull @.str.60, i64 noundef 1) #22
  br label %31

29:                                               ; preds = %1
  %30 = tail call i64 @rb_funcallv(i64 noundef %0, i64 noundef 3361, i32 noundef 0, ptr noundef null) #22
  br label %31

31:                                               ; preds = %29, %rb_class_of.exit
  %.0 = phi i64 [ %30, %29 ], [ %7, %rb_class_of.exit ]
  ret i64 %.0
}